target datalayout = "e-m:e-p270:32:32-p271:32:32-p272:64:64-i64:64-i128:128-f80:128-n8:16:32:64-S128"
target triple = "x86_64-pc-linux-gnu"

%struct.ARKodeMemRec = type { ptr, double, ptr, i32, i32, double, double, ptr, i32, double, ptr, i32, i32, ptr, ptr, i32, ptr, ptr, i32, ptr, ptr, ptr, ptr, ptr, ptr, ptr, ptr, ptr, ptr, ptr, ptr, ptr, ptr, ptr, i32, ptr, ptr, i32, ptr, i32, ptr, ptr, ptr, ptr, ptr, ptr, ptr, ptr, ptr, ptr, ptr, ptr, ptr, ptr, ptr, ptr, ptr, ptr, ptr, ptr, ptr, ptr, ptr, ptr, ptr, ptr, i32, ptr, ptr, ptr, ptr, ptr, ptr, ptr, i32, ptr, ptr, ptr, i32, ptr, ptr, ptr, ptr, ptr, ptr, ptr, i32, i32, i32, i32, double, double, double, double, double, double, double, double, double, double, i32, ptr, i64, i32, i32, i32, i32, i64, i64, i32, i64, i64, i64, i64, i64, i64, i64, double, double, double, double, double, i32, double, double, i32, i32, i32, i32, i32, i32, i32, i32, ptr, i32, ptr, ptr, ptr, ptr, i32, i32, i32 }
%struct.ARKLsMemRec = type { i32, i32, i32, ptr, ptr, i32, i32, double, double, ptr, ptr, ptr, ptr, ptr, ptr, ptr, i64, double, i64, i64, i64, i64, i64, i64, i64, i64, i64, double, ptr, ptr, ptr, ptr, i32, ptr, ptr, ptr, ptr, i32, ptr, ptr, i32 }

@.str = private unnamed_addr constant [118 x i8] c"generated/home/dtcxzyw/WorkSpace/Projects/compilers/llvm-opt-benchmark/bench/sundials/sundials/src/arkode/arkode_ls.c\00", align 1
@.str.49 = private unnamed_addr constant [56 x i8] c"The Jacobian routine failed in an unrecoverable manner.\00", align 1
@.str.60 = private unnamed_addr constant [55 x i8] c"A SUNMatrix routine failed in an unrecoverable manner.\00", align 1
@.str.63 = private unnamed_addr constant [27 x i8] c"Integrator memory is NULL.\00", align 1
@.str.64 = private unnamed_addr constant [30 x i8] c"Linear solver memory is NULL.\00", align 1
@__func__.arkLsLinSys = private unnamed_addr constant [12 x i8] c"arkLsLinSys\00", align 1

; Function Attrs: nounwind uwtable
define i32 @arkLs_AccessARKODELMem(ptr noundef %0, ptr noundef %1, ptr noundef %2, ptr noundef %3) #0 {
  %5 = alloca i32, align 4
  %6 = alloca ptr, align 8
  %7 = alloca ptr, align 8
  %8 = alloca ptr, align 8
  %9 = alloca ptr, align 8
  %10 = alloca ptr, align 8
  %11 = alloca i32, align 4
  store ptr %0, ptr %6, align 8, !tbaa !3
  store ptr %1, ptr %7, align 8, !tbaa !155
  store ptr %2, ptr %8, align 8, !tbaa !170
  store ptr %3, ptr %9, align 8, !tbaa !157
  call void @llvm.lifetime.start.p0(i64 8, ptr %10) #7
  %12 = load ptr, ptr %6, align 8, !tbaa !3
  %13 = icmp eq ptr %12, null
  br i1 %13, label %14, label %16

14:                                               ; preds = %4
  %15 = load ptr, ptr %7, align 8, !tbaa !155
  call void (ptr, i32, i32, ptr, ptr, ptr, ...) @arkProcessError(ptr noundef null, i32 noundef -1, i32 noundef 4050, ptr noundef %15, ptr noundef @.str, ptr noundef @.str.63)
  store i32 -1, ptr %5, align 4
  store i32 1, ptr %11, align 4
  br label %35

16:                                               ; preds = %4
  %17 = load ptr, ptr %6, align 8, !tbaa !3
  %18 = load ptr, ptr %8, align 8, !tbaa !170
  store ptr %17, ptr %18, align 8, !tbaa !11
  %19 = load ptr, ptr %8, align 8, !tbaa !170
  %20 = load ptr, ptr %19, align 8, !tbaa !11
  %21 = getelementptr inbounds nuw %struct.ARKodeMemRec, ptr %20, i32 0, i32 42
  %22 = load ptr, ptr %21, align 8, !tbaa !41
  %23 = load ptr, ptr %8, align 8, !tbaa !170
  %24 = load ptr, ptr %23, align 8, !tbaa !11
  %25 = call ptr %22(ptr noundef %24)
  store ptr %25, ptr %10, align 8, !tbaa !3
  %26 = load ptr, ptr %10, align 8, !tbaa !3
  %27 = icmp eq ptr %26, null
  br i1 %27, label %28, label %32

28:                                               ; preds = %16
  %29 = load ptr, ptr %8, align 8, !tbaa !170
  %30 = load ptr, ptr %29, align 8, !tbaa !11
  %31 = load ptr, ptr %7, align 8, !tbaa !155
  call void (ptr, i32, i32, ptr, ptr, ptr, ...) @arkProcessError(ptr noundef %30, i32 noundef -2, i32 noundef 4058, ptr noundef %31, ptr noundef @.str, ptr noundef @.str.64)
  store i32 -2, ptr %5, align 4
  store i32 1, ptr %11, align 4
  br label %35

32:                                               ; preds = %16
  %33 = load ptr, ptr %10, align 8, !tbaa !3
  %34 = load ptr, ptr %9, align 8, !tbaa !157
  store ptr %33, ptr %34, align 8, !tbaa !44
  store i32 0, ptr %5, align 4
  store i32 1, ptr %11, align 4
  br label %35

35:                                               ; preds = %32, %28, %14
  call void @llvm.lifetime.end.p0(i64 8, ptr %10) #7
  %36 = load i32, ptr %5, align 4
  ret i32 %36
}

; Function Attrs: nounwind uwtable
define internal i32 @arkLsLinSys(double noundef %0, ptr noundef %1, ptr noundef %2, ptr noundef %3, ptr noundef %4, i32 noundef %5, ptr noundef %6, double noundef %7, ptr noundef %8, ptr noundef %9, ptr noundef %10, ptr noundef %11) #0 {
  %13 = alloca i32, align 4
  %14 = alloca double, align 8
  %15 = alloca ptr, align 8
  %16 = alloca ptr, align 8
  %17 = alloca ptr, align 8
  %18 = alloca ptr, align 8
  %19 = alloca i32, align 4
  %20 = alloca ptr, align 8
  %21 = alloca double, align 8
  %22 = alloca ptr, align 8
  %23 = alloca ptr, align 8
  %24 = alloca ptr, align 8
  %25 = alloca ptr, align 8
  %26 = alloca ptr, align 8
  %27 = alloca ptr, align 8
  %28 = alloca i32, align 4
  %29 = alloca i32, align 4
  store double %0, ptr %14, align 8, !tbaa !77
  store ptr %1, ptr %15, align 8, !tbaa !78
  store ptr %2, ptr %16, align 8, !tbaa !78
  store ptr %3, ptr %17, align 8, !tbaa !9
  store ptr %4, ptr %18, align 8, !tbaa !9
  store i32 %5, ptr %19, align 4, !tbaa !30
  store ptr %6, ptr %20, align 8, !tbaa !87
  store double %7, ptr %21, align 8, !tbaa !77
  store ptr %8, ptr %22, align 8, !tbaa !3
  store ptr %9, ptr %23, align 8, !tbaa !78
  store ptr %10, ptr %24, align 8, !tbaa !78
  store ptr %11, ptr %25, align 8, !tbaa !78
  call void @llvm.lifetime.start.p0(i64 8, ptr %26) #7
  call void @llvm.lifetime.start.p0(i64 8, ptr %27) #7
  call void @llvm.lifetime.start.p0(i64 4, ptr %28) #7
  %30 = load ptr, ptr %22, align 8, !tbaa !3
  %31 = call i32 @arkLs_AccessARKODELMem(ptr noundef %30, ptr noundef @__func__.arkLsLinSys, ptr noundef %26, ptr noundef %27)
  store i32 %31, ptr %28, align 4, !tbaa !30
  %32 = load i32, ptr %28, align 4, !tbaa !30
  %33 = icmp ne i32 %32, 0
  br i1 %33, label %34, label %36

34:                                               ; preds = %12
  %35 = load i32, ptr %28, align 4, !tbaa !30
  store i32 %35, ptr %13, align 4
  store i32 1, ptr %29, align 4
  br label %143

36:                                               ; preds = %12
  %37 = load i32, ptr %19, align 4, !tbaa !30
  %38 = icmp ne i32 %37, 0
  br i1 %38, label %39, label %56

39:                                               ; preds = %36
  %40 = load ptr, ptr %20, align 8, !tbaa !87
  store i32 0, ptr %40, align 4, !tbaa !30
  %41 = load ptr, ptr %27, align 8, !tbaa !44
  %42 = getelementptr inbounds nuw %struct.ARKLsMemRec, ptr %41, i32 0, i32 11
  %43 = load ptr, ptr %42, align 8, !tbaa !72
  %44 = load ptr, ptr %17, align 8, !tbaa !9
  %45 = call i32 @SUNMatCopy(ptr noundef %43, ptr noundef %44)
  store i32 %45, ptr %28, align 4, !tbaa !30
  %46 = load i32, ptr %28, align 4, !tbaa !30
  %47 = icmp ne i32 %46, 0
  br i1 %47, label %48, label %55

48:                                               ; preds = %39
  %49 = load ptr, ptr %26, align 8, !tbaa !11
  call void (ptr, i32, i32, ptr, ptr, ptr, ...) @arkProcessError(ptr noundef %49, i32 noundef -11, i32 noundef 2892, ptr noundef @__func__.arkLsLinSys, ptr noundef @.str, ptr noundef @.str.60)
  %50 = load ptr, ptr %27, align 8, !tbaa !44
  %51 = getelementptr inbounds nuw %struct.ARKLsMemRec, ptr %50, i32 0, i32 40
  store i32 -11, ptr %51, align 8, !tbaa !69
  %52 = load ptr, ptr %27, align 8, !tbaa !44
  %53 = getelementptr inbounds nuw %struct.ARKLsMemRec, ptr %52, i32 0, i32 40
  %54 = load i32, ptr %53, align 8, !tbaa !69
  store i32 %54, ptr %13, align 4
  store i32 1, ptr %29, align 4
  br label %143

55:                                               ; preds = %39
  br label %118

56:                                               ; preds = %36
  %57 = load ptr, ptr %20, align 8, !tbaa !87
  store i32 1, ptr %57, align 4, !tbaa !30
  %58 = load ptr, ptr %27, align 8, !tbaa !44
  %59 = getelementptr inbounds nuw %struct.ARKLsMemRec, ptr %58, i32 0, i32 0
  %60 = load i32, ptr %59, align 8, !tbaa !48
  %61 = icmp ne i32 %60, 0
  br i1 %61, label %75, label %62

62:                                               ; preds = %56
  %63 = load ptr, ptr %17, align 8, !tbaa !9
  %64 = call i32 @SUNMatZero(ptr noundef %63)
  store i32 %64, ptr %28, align 4, !tbaa !30
  %65 = load i32, ptr %28, align 4, !tbaa !30
  %66 = icmp ne i32 %65, 0
  br i1 %66, label %67, label %74

67:                                               ; preds = %62
  %68 = load ptr, ptr %26, align 8, !tbaa !11
  call void (ptr, i32, i32, ptr, ptr, ptr, ...) @arkProcessError(ptr noundef %68, i32 noundef -11, i32 noundef 2909, ptr noundef @__func__.arkLsLinSys, ptr noundef @.str, ptr noundef @.str.60)
  %69 = load ptr, ptr %27, align 8, !tbaa !44
  %70 = getelementptr inbounds nuw %struct.ARKLsMemRec, ptr %69, i32 0, i32 40
  store i32 -11, ptr %70, align 8, !tbaa !69
  %71 = load ptr, ptr %27, align 8, !tbaa !44
  %72 = getelementptr inbounds nuw %struct.ARKLsMemRec, ptr %71, i32 0, i32 40
  %73 = load i32, ptr %72, align 8, !tbaa !69
  store i32 %73, ptr %13, align 4
  store i32 1, ptr %29, align 4
  br label %143

74:                                               ; preds = %62
  br label %75

75:                                               ; preds = %74, %56
  %76 = load ptr, ptr %27, align 8, !tbaa !44
  %77 = getelementptr inbounds nuw %struct.ARKLsMemRec, ptr %76, i32 0, i32 3
  %78 = load ptr, ptr %77, align 8, !tbaa !51
  %79 = load double, ptr %14, align 8, !tbaa !77
  %80 = load ptr, ptr %15, align 8, !tbaa !78
  %81 = load ptr, ptr %16, align 8, !tbaa !78
  %82 = load ptr, ptr %17, align 8, !tbaa !9
  %83 = load ptr, ptr %27, align 8, !tbaa !44
  %84 = getelementptr inbounds nuw %struct.ARKLsMemRec, ptr %83, i32 0, i32 4
  %85 = load ptr, ptr %84, align 8, !tbaa !52
  %86 = load ptr, ptr %23, align 8, !tbaa !78
  %87 = load ptr, ptr %24, align 8, !tbaa !78
  %88 = load ptr, ptr %25, align 8, !tbaa !78
  %89 = call i32 %78(double noundef %79, ptr noundef %80, ptr noundef %81, ptr noundef %82, ptr noundef %85, ptr noundef %86, ptr noundef %87, ptr noundef %88)
  store i32 %89, ptr %28, align 4, !tbaa !30
  %90 = load i32, ptr %28, align 4, !tbaa !30
  %91 = icmp slt i32 %90, 0
  br i1 %91, label %92, label %96

92:                                               ; preds = %75
  %93 = load ptr, ptr %26, align 8, !tbaa !11
  call void (ptr, i32, i32, ptr, ptr, ptr, ...) @arkProcessError(ptr noundef %93, i32 noundef -7, i32 noundef 2921, ptr noundef @__func__.arkLsLinSys, ptr noundef @.str, ptr noundef @.str.49)
  %94 = load ptr, ptr %27, align 8, !tbaa !44
  %95 = getelementptr inbounds nuw %struct.ARKLsMemRec, ptr %94, i32 0, i32 40
  store i32 -7, ptr %95, align 8, !tbaa !69
  store i32 -1, ptr %13, align 4
  store i32 1, ptr %29, align 4
  br label %143

96:                                               ; preds = %75
  %97 = load i32, ptr %28, align 4, !tbaa !30
  %98 = icmp sgt i32 %97, 0
  br i1 %98, label %99, label %102

99:                                               ; preds = %96
  %100 = load ptr, ptr %27, align 8, !tbaa !44
  %101 = getelementptr inbounds nuw %struct.ARKLsMemRec, ptr %100, i32 0, i32 40
  store i32 -8, ptr %101, align 8, !tbaa !69
  store i32 1, ptr %13, align 4
  store i32 1, ptr %29, align 4
  br label %143

102:                                              ; preds = %96
  %103 = load ptr, ptr %17, align 8, !tbaa !9
  %104 = load ptr, ptr %27, align 8, !tbaa !44
  %105 = getelementptr inbounds nuw %struct.ARKLsMemRec, ptr %104, i32 0, i32 11
  %106 = load ptr, ptr %105, align 8, !tbaa !72
  %107 = call i32 @SUNMatCopy(ptr noundef %103, ptr noundef %106)
  store i32 %107, ptr %28, align 4, !tbaa !30
  %108 = load i32, ptr %28, align 4, !tbaa !30
  %109 = icmp ne i32 %108, 0
  br i1 %109, label %110, label %117

110:                                              ; preds = %102
  %111 = load ptr, ptr %26, align 8, !tbaa !11
  call void (ptr, i32, i32, ptr, ptr, ptr, ...) @arkProcessError(ptr noundef %111, i32 noundef -11, i32 noundef 2936, ptr noundef @__func__.arkLsLinSys, ptr noundef @.str, ptr noundef @.str.60)
  %112 = load ptr, ptr %27, align 8, !tbaa !44
  %113 = getelementptr inbounds nuw %struct.ARKLsMemRec, ptr %112, i32 0, i32 40
  store i32 -11, ptr %113, align 8, !tbaa !69
  %114 = load ptr, ptr %27, align 8, !tbaa !44
  %115 = getelementptr inbounds nuw %struct.ARKLsMemRec, ptr %114, i32 0, i32 40
  %116 = load i32, ptr %115, align 8, !tbaa !69
  store i32 %116, ptr %13, align 4
  store i32 1, ptr %29, align 4
  br label %143

117:                                              ; preds = %102
  br label %118

118:                                              ; preds = %117, %55
  %119 = load ptr, ptr %18, align 8, !tbaa !9
  %120 = icmp eq ptr %119, null
  br i1 %120, label %121, label %126

121:                                              ; preds = %118
  %122 = load double, ptr %21, align 8, !tbaa !77
  %123 = fneg double %122
  %124 = load ptr, ptr %17, align 8, !tbaa !9
  %125 = call i32 @SUNMatScaleAddI(double noundef %123, ptr noundef %124)
  store i32 %125, ptr %28, align 4, !tbaa !30
  br label %132

126:                                              ; preds = %118
  %127 = load double, ptr %21, align 8, !tbaa !77
  %128 = fneg double %127
  %129 = load ptr, ptr %17, align 8, !tbaa !9
  %130 = load ptr, ptr %18, align 8, !tbaa !9
  %131 = call i32 @SUNMatScaleAdd(double noundef %128, ptr noundef %129, ptr noundef %130)
  store i32 %131, ptr %28, align 4, !tbaa !30
  br label %132

132:                                              ; preds = %126, %121
  %133 = load i32, ptr %28, align 4, !tbaa !30
  %134 = icmp ne i32 %133, 0
  br i1 %134, label %135, label %142

135:                                              ; preds = %132
  %136 = load ptr, ptr %26, align 8, !tbaa !11
  call void (ptr, i32, i32, ptr, ptr, ptr, ...) @arkProcessError(ptr noundef %136, i32 noundef -11, i32 noundef 2950, ptr noundef @__func__.arkLsLinSys, ptr noundef @.str, ptr noundef @.str.60)
  %137 = load ptr, ptr %27, align 8, !tbaa !44
  %138 = getelementptr inbounds nuw %struct.ARKLsMemRec, ptr %137, i32 0, i32 40
  store i32 -11, ptr %138, align 8, !tbaa !69
  %139 = load ptr, ptr %27, align 8, !tbaa !44
  %140 = getelementptr inbounds nuw %struct.ARKLsMemRec, ptr %139, i32 0, i32 40
  %141 = load i32, ptr %140, align 8, !tbaa !69
  store i32 %141, ptr %13, align 4
  store i32 1, ptr %29, align 4
  br label %143

142:                                              ; preds = %132
  store i32 0, ptr %13, align 4
  store i32 1, ptr %29, align 4
  br label %143

143:                                              ; preds = %142, %135, %110, %99, %92, %67, %48, %34
  call void @llvm.lifetime.end.p0(i64 4, ptr %28) #7
  call void @llvm.lifetime.end.p0(i64 8, ptr %27) #7
  call void @llvm.lifetime.end.p0(i64 8, ptr %26) #7
  %144 = load i32, ptr %13, align 4
  ret i32 %144
}