; Function Attrs: nounwind uwtable
define internal range(i32 -11, 2) i32 @arkLsLinSys(double noundef %0, ptr noundef %1, ptr noundef %2, ptr noundef %3, ptr noundef %4, i32 noundef %5, ptr noundef writeonly captures(none) %6, double noundef %7, ptr noundef %8, ptr noundef %9, ptr noundef %10, ptr noundef %11) #0 {
  %13 = icmp eq ptr %8, null
  br i1 %13, label %14, label %15

14:                                               ; preds = %12
  tail call void (ptr, i32, i32, ptr, ptr, ptr, ...) @arkProcessError(ptr noundef null, i32 noundef -1, i32 noundef 4050, ptr noundef nonnull @__func__.arkLsLinSys, ptr noundef nonnull @.str, ptr noundef nonnull @.str.63) #13
  br label %arkLs_AccessARKODELMem.exit.thread

15:                                               ; preds = %12
  %16 = getelementptr inbounds nuw i8, ptr %8, i64 320
  %17 = load ptr, ptr %16, align 8, !tbaa !33
  %18 = tail call ptr %17(ptr noundef nonnull %8) #13
  %19 = icmp eq ptr %18, null
  br i1 %19, label %20, label %arkLs_AccessARKODELMem.exit

20:                                               ; preds = %15
  tail call void (ptr, i32, i32, ptr, ptr, ptr, ...) @arkProcessError(ptr noundef nonnull %8, i32 noundef -2, i32 noundef 4058, ptr noundef nonnull @__func__.arkLsLinSys, ptr noundef nonnull @.str, ptr noundef nonnull @.str.64) #13
  br label %arkLs_AccessARKODELMem.exit.thread

arkLs_AccessARKODELMem.exit:                      ; preds = %15
  %.not32 = icmp eq i32 %5, 0
  br i1 %.not32, label %27, label %21

21:                                               ; preds = %arkLs_AccessARKODELMem.exit
  store i32 0, ptr %6, align 4, !tbaa !63
  %22 = getelementptr inbounds nuw i8, ptr %18, i64 72
  %23 = load ptr, ptr %22, align 8, !tbaa !61
  %24 = tail call i32 @SUNMatCopy(ptr noundef %23, ptr noundef %3) #13
  %.not37 = icmp eq i32 %24, 0
  br i1 %.not37, label %51, label %25

25:                                               ; preds = %21
  tail call void (ptr, i32, i32, ptr, ptr, ptr, ...) @arkProcessError(ptr noundef nonnull %8, i32 noundef -11, i32 noundef 2892, ptr noundef nonnull @__func__.arkLsLinSys, ptr noundef nonnull @.str, ptr noundef nonnull @.str.60) #13
  %26 = getelementptr inbounds nuw i8, ptr %18, i64 304
  store i32 -11, ptr %26, align 8, !tbaa !58
  br label %arkLs_AccessARKODELMem.exit.thread

27:                                               ; preds = %arkLs_AccessARKODELMem.exit
  store i32 1, ptr %6, align 4, !tbaa !63
  %28 = load i32, ptr %18, align 8, !tbaa !40
  %.not33 = icmp eq i32 %28, 0
  br i1 %.not33, label %29, label %33

29:                                               ; preds = %27
  %30 = tail call i32 @SUNMatZero(ptr noundef %3) #13
  %.not34 = icmp eq i32 %30, 0
  br i1 %.not34, label %33, label %31

31:                                               ; preds = %29
  tail call void (ptr, i32, i32, ptr, ptr, ptr, ...) @arkProcessError(ptr noundef nonnull %8, i32 noundef -11, i32 noundef 2909, ptr noundef nonnull @__func__.arkLsLinSys, ptr noundef nonnull @.str, ptr noundef nonnull @.str.60) #13
  %32 = getelementptr inbounds nuw i8, ptr %18, i64 304
  store i32 -11, ptr %32, align 8, !tbaa !58
  br label %arkLs_AccessARKODELMem.exit.thread

33:                                               ; preds = %29, %27
  %34 = getelementptr inbounds nuw i8, ptr %18, i64 16
  %35 = load ptr, ptr %34, align 8, !tbaa !43
  %36 = getelementptr inbounds nuw i8, ptr %18, i64 24
  %37 = load ptr, ptr %36, align 8, !tbaa !44
  %38 = tail call i32 %35(double noundef %0, ptr noundef %1, ptr noundef %2, ptr noundef %3, ptr noundef %37, ptr noundef %9, ptr noundef %10, ptr noundef %11) #13
  %39 = icmp slt i32 %38, 0
  br i1 %39, label %40, label %42

40:                                               ; preds = %33
  tail call void (ptr, i32, i32, ptr, ptr, ptr, ...) @arkProcessError(ptr noundef nonnull %8, i32 noundef -7, i32 noundef 2921, ptr noundef nonnull @__func__.arkLsLinSys, ptr noundef nonnull @.str, ptr noundef nonnull @.str.49) #13
  %41 = getelementptr inbounds nuw i8, ptr %18, i64 304
  store i32 -7, ptr %41, align 8, !tbaa !58
  br label %arkLs_AccessARKODELMem.exit.thread

42:                                               ; preds = %33
  %.not35 = icmp eq i32 %38, 0
  br i1 %.not35, label %45, label %43

43:                                               ; preds = %42
  %44 = getelementptr inbounds nuw i8, ptr %18, i64 304
  store i32 -8, ptr %44, align 8, !tbaa !58
  br label %arkLs_AccessARKODELMem.exit.thread

45:                                               ; preds = %42
  %46 = getelementptr inbounds nuw i8, ptr %18, i64 72
  %47 = load ptr, ptr %46, align 8, !tbaa !61
  %48 = tail call i32 @SUNMatCopy(ptr noundef %3, ptr noundef %47) #13
  %.not36 = icmp eq i32 %48, 0
  br i1 %.not36, label %51, label %49

49:                                               ; preds = %45
  tail call void (ptr, i32, i32, ptr, ptr, ptr, ...) @arkProcessError(ptr noundef nonnull %8, i32 noundef -11, i32 noundef 2936, ptr noundef nonnull @__func__.arkLsLinSys, ptr noundef nonnull @.str, ptr noundef nonnull @.str.60) #13
  %50 = getelementptr inbounds nuw i8, ptr %18, i64 304
  store i32 -11, ptr %50, align 8, !tbaa !58
  br label %arkLs_AccessARKODELMem.exit.thread

51:                                               ; preds = %45, %21
  %52 = icmp eq ptr %4, null
  %53 = fneg double %7
  br i1 %52, label %54, label %56

54:                                               ; preds = %51
  %55 = tail call i32 @SUNMatScaleAddI(double noundef %53, ptr noundef %3) #13
  br label %58

56:                                               ; preds = %51
  %57 = tail call i32 @SUNMatScaleAdd(double noundef %53, ptr noundef %3, ptr noundef nonnull %4) #13
  br label %58

58:                                               ; preds = %56, %54
  %.0 = phi i32 [ %55, %54 ], [ %57, %56 ]
  %.not38 = icmp eq i32 %.0, 0
  br i1 %.not38, label %arkLs_AccessARKODELMem.exit.thread, label %59

59:                                               ; preds = %58
  tail call void (ptr, i32, i32, ptr, ptr, ptr, ...) @arkProcessError(ptr noundef nonnull %8, i32 noundef -11, i32 noundef 2950, ptr noundef nonnull @__func__.arkLsLinSys, ptr noundef nonnull @.str, ptr noundef nonnull @.str.60) #13
  %60 = getelementptr inbounds nuw i8, ptr %18, i64 304
  store i32 -11, ptr %60, align 8, !tbaa !58
  br label %arkLs_AccessARKODELMem.exit.thread

arkLs_AccessARKODELMem.exit.thread:               ; preds = %20, %14, %58, %59, %49, %43, %40, %31, %25
  %.028 = phi i32 [ -11, %25 ], [ -11, %59 ], [ -1, %40 ], [ 1, %43 ], [ -11, %49 ], [ -11, %31 ], [ 0, %58 ], [ -2, %20 ], [ -1, %14 ]
  ret i32 %.028
}